target datalayout = "e-m:e-p270:32:32-p271:32:32-p272:64:64-i64:64-i128:128-f80:128-n8:16:32:64-S128"
target triple = "x86_64-pc-linux-gnu"

@hf_ecmp_file_status = internal global i32 0, align 4
@hf_ecmp_file_handle = internal global i32 0, align 4
@hf_ecmp_data = internal global i32 0, align 4

; Function Attrs: null_pointer_is_valid sspstrong uwtable
define internal void @file_write(i32 noundef %0, i1 noundef zeroext %1, ptr noundef %2, ptr noundef %3) #0 {
  %5 = alloca i32, align 4
  %6 = alloca i8, align 1
  %7 = alloca ptr, align 8
  %8 = alloca ptr, align 8
  %9 = alloca i16, align 2
  store i32 %0, ptr %5, align 4
  %10 = zext i1 %1 to i8
  store i8 %10, ptr %6, align 1
  store ptr %2, ptr %7, align 8
  store ptr %3, ptr %8, align 8
  call void @llvm.lifetime.start.p0(i64 2, ptr %9) #3
  %11 = load i8, ptr %6, align 1, !range !6, !noundef !7
  %12 = trunc i8 %11 to i1
  br i1 %12, label %13, label %32

13:                                               ; preds = %4
  %14 = load ptr, ptr %8, align 8
  %15 = load i32, ptr @hf_ecmp_file_handle, align 4
  %16 = load ptr, ptr %7, align 8
  %17 = load i32, ptr %5, align 4
  %18 = call ptr @proto_tree_add_item(ptr noundef %14, i32 noundef %15, ptr noundef %16, i32 noundef %17, i32 noundef 2, i32 noundef 0)
  %19 = load i32, ptr %5, align 4
  %20 = add i32 %19, 2
  store i32 %20, ptr %5, align 4
  %21 = load ptr, ptr %7, align 8
  %22 = load i32, ptr %5, align 4
  %23 = call zeroext i16 @tvb_get_ntohs(ptr noundef %21, i32 noundef %22)
  store i16 %23, ptr %9, align 2
  %24 = load ptr, ptr %8, align 8
  %25 = load i32, ptr @hf_ecmp_data, align 4
  %26 = load ptr, ptr %7, align 8
  %27 = load i32, ptr %5, align 4
  %28 = add i32 %27, 2
  %29 = load i16, ptr %9, align 2
  %30 = zext i16 %29 to i32
  %31 = call ptr @proto_tree_add_item(ptr noundef %24, i32 noundef %25, ptr noundef %26, i32 noundef %28, i32 noundef %30, i32 noundef 0)
  br label %38

32:                                               ; preds = %4
  %33 = load ptr, ptr %8, align 8
  %34 = load i32, ptr @hf_ecmp_file_status, align 4
  %35 = load ptr, ptr %7, align 8
  %36 = load i32, ptr %5, align 4
  %37 = call ptr @proto_tree_add_item(ptr noundef %33, i32 noundef %34, ptr noundef %35, i32 noundef %36, i32 noundef 1, i32 noundef 0)
  br label %38

38:                                               ; preds = %32, %13
  call void @llvm.lifetime.end.p0(i64 2, ptr %9) #3
  ret void
}